; Function Attrs: mustprogress nounwind uwtable
define dso_local noundef zeroext i1 @_ZNK4llvm18ConstantDataVector11isSplatDataEv(ptr nocapture noundef nonnull readonly align 8 dereferenceable(48) %0) local_unnamed_addr #0 align 2 {
_ZNK4llvm22ConstantDataSequential16getRawDataValuesEv.exit:
  %1 = alloca %"class.llvm::TypeSize", align 8
  %2 = alloca %"class.llvm::TypeSize", align 8
  %3 = getelementptr inbounds nuw i8, ptr %0, i64 24
  %4 = load ptr, ptr %3, align 8
  %5 = getelementptr inbounds nuw i8, ptr %0, i64 8
  %6 = load ptr, ptr %5, align 8
  call void @llvm.lifetime.start.p0(i64 16, ptr nonnull %2)
  %.0.in.i.i.i = getelementptr inbounds nuw i8, ptr %6, i64 24
  %.0.i.i.i = load ptr, ptr %.0.in.i.i.i, align 8
  %7 = tail call { i64, i8 } @_ZNK4llvm4Type22getPrimitiveSizeInBitsEv(ptr noundef nonnull align 8 dereferenceable(24) %.0.i.i.i) #30
  %.fca.0.extract.i.i = extractvalue { i64, i8 } %7, 0
  %.fca.1.extract.i.i = extractvalue { i64, i8 } %7, 1
  store i64 %.fca.0.extract.i.i, ptr %2, align 8
  %.sroa.2.0..sroa_idx.i.i = getelementptr inbounds i8, ptr %2, i64 8
  store i8 %.fca.1.extract.i.i, ptr %.sroa.2.0..sroa_idx.i.i, align 8
  %8 = call noundef i64 @_ZNK4llvm8TypeSizecvmEv(ptr noundef nonnull align 8 dereferenceable(9) %2) #28
  call void @llvm.lifetime.end.p0(i64 16, ptr nonnull %2)
  call void @llvm.lifetime.start.p0(i64 16, ptr nonnull %1)
  %9 = load ptr, ptr %5, align 8
  %.0.in.i.i = getelementptr inbounds nuw i8, ptr %9, i64 24
  %.0.i.i11 = load ptr, ptr %.0.in.i.i, align 8
  %10 = call { i64, i8 } @_ZNK4llvm4Type22getPrimitiveSizeInBitsEv(ptr noundef nonnull align 8 dereferenceable(24) %.0.i.i11) #30
  %.fca.0.extract.i = extractvalue { i64, i8 } %10, 0
  %.fca.1.extract.i = extractvalue { i64, i8 } %10, 1
  store i64 %.fca.0.extract.i, ptr %1, align 8
  %.sroa.2.0..sroa_idx.i = getelementptr inbounds i8, ptr %1, i64 8
  store i8 %.fca.1.extract.i, ptr %.sroa.2.0..sroa_idx.i, align 8
  %11 = call noundef i64 @_ZNK4llvm8TypeSizecvmEv(ptr noundef nonnull align 8 dereferenceable(9) %1) #28
  %12 = lshr i64 %11, 3
  call void @llvm.lifetime.end.p0(i64 16, ptr nonnull %1)
  %13 = load ptr, ptr %5, align 8
  %14 = getelementptr inbounds nuw i8, ptr %13, i64 8
  %15 = load i32, ptr %14, align 8
  %16 = and i32 %15, 255
  %17 = icmp ne i32 %16, 16
  %.not4.i = icmp eq ptr %13, null
  %.not.i = or i1 %.not4.i, %17
  %18 = getelementptr inbounds nuw i8, ptr %13, i64 32
  br i1 %.not.i, label %22, label %19

19:                                               ; preds = %_ZNK4llvm22ConstantDataSequential16getRawDataValuesEv.exit
  %20 = load i64, ptr %18, align 8
  %21 = trunc i64 %20 to i32
  br label %_ZNK4llvm22ConstantDataSequential14getNumElementsEv.exit

22:                                               ; preds = %_ZNK4llvm22ConstantDataSequential16getRawDataValuesEv.exit
  %23 = load i32, ptr %18, align 8
  br label %_ZNK4llvm22ConstantDataSequential14getNumElementsEv.exit

_ZNK4llvm22ConstantDataSequential14getNumElementsEv.exit: ; preds = %19, %22
  %.0.i = phi i32 [ %21, %19 ], [ %23, %22 ]
  %.not12 = icmp eq i32 %.0.i, 1
  br i1 %.not12, label %._crit_edge, label %.lr.ph

.lr.ph:                                           ; preds = %_ZNK4llvm22ConstantDataSequential14getNumElementsEv.exit
  %24 = and i64 %12, 4294967295
  br label %25

25:                                               ; preds = %25, %.lr.ph
  %indvars.iv = phi i64 [ 1, %.lr.ph ], [ %indvars.iv.next, %25 ]
  %26 = mul i64 %indvars.iv, %12
  %27 = and i64 %26, 4294967295
  %28 = getelementptr inbounds i8, ptr %4, i64 %27
  %bcmp = call i32 @bcmp(ptr %4, ptr %28, i64 %24)
  %.not10 = icmp eq i32 %bcmp, 0
  %indvars.iv.next = add nuw nsw i64 %indvars.iv, 1
  %lftr.wideiv = trunc i64 %indvars.iv.next to i32
  %exitcond = icmp ne i32 %.0.i, %lftr.wideiv
  %or.cond.not = select i1 %.not10, i1 %exitcond, i1 false
  br i1 %or.cond.not, label %25, label %._crit_edge, !llvm.loop !183

._crit_edge:                                      ; preds = %25, %_ZNK4llvm22ConstantDataSequential14getNumElementsEv.exit
  %.not.lcssa = phi i1 [ true, %_ZNK4llvm22ConstantDataSequential14getNumElementsEv.exit ], [ %.not10, %25 ]
  ret i1 %.not.lcssa
}